target datalayout = "e-m:e-p270:32:32-p271:32:32-p272:64:64-i64:64-i128:128-f80:128-n8:16:32:64-S128"
target triple = "x86_64-pc-linux-gnu"

%struct.DdManager = type { %struct.DdNode, ptr, ptr, ptr, ptr, ptr, ptr, ptr, i32, i32, double, double, double, i32, i32, i32, i32, i32, i32, ptr, ptr, %struct.DdSubtable, i32, i32, i32, i32, i32, i32, i32, double, i32, i32, i32, ptr, i64, double, i32, ptr, ptr, ptr, ptr, ptr, ptr, ptr, i32, ptr, ptr, ptr, ptr, ptr, ptr, i32, i32, i32, double, i32, i32, i32, i32, double, double, i32, i32, i32, i32, i32, i32, i32, i32, i32, ptr, ptr, i32, i32, i32, i32, i32, i32, ptr, ptr, ptr, ptr, ptr, ptr, ptr, ptr, i32, i64, i64, i64, i32, i64, i64, double, double, double, double, double, double, i32, ptr, ptr, i64 }
%struct.DdNode = type { i32, i32, ptr, %union.anon, i64 }
%union.anon = type { %struct.DdChildren }
%struct.DdChildren = type { ptr, ptr }
%struct.DdSubtable = type { ptr, i32, i32, i32, i32, i32, i32, i32, i32, i32, i32, i32 }
%struct.timespec = type { i64, i64 }

; Function Attrs: inlinehint nounwind uwtable
define internal i64 @Abc_Clock() #5 {
  %1 = alloca i64, align 8
  %2 = alloca %struct.timespec, align 8
  %3 = alloca i32, align 4
  %4 = alloca i64, align 8
  call void @llvm.lifetime.start.p0(i64 16, ptr %2) #10
  %5 = call i32 @clock_gettime(i32 noundef 1, ptr noundef %2) #10
  %6 = icmp slt i32 %5, 0
  br i1 %6, label %7, label %8

7:                                                ; preds = %0
  store i64 -1, ptr %1, align 8
  store i32 1, ptr %3, align 4
  br label %19

8:                                                ; preds = %0
  call void @llvm.lifetime.start.p0(i64 8, ptr %4) #10
  %9 = getelementptr inbounds nuw %struct.timespec, ptr %2, i32 0, i32 0
  %10 = load i64, ptr %9, align 8, !tbaa !110
  %11 = mul nsw i64 %10, 1000000
  store i64 %11, ptr %4, align 8, !tbaa !82
  %12 = getelementptr inbounds nuw %struct.timespec, ptr %2, i32 0, i32 1
  %13 = load i64, ptr %12, align 8, !tbaa !112
  %14 = mul nsw i64 %13, 1000000
  %15 = sdiv i64 %14, 1000000000
  %16 = load i64, ptr %4, align 8, !tbaa !82
  %17 = add nsw i64 %16, %15
  store i64 %17, ptr %4, align 8, !tbaa !82
  %18 = load i64, ptr %4, align 8, !tbaa !82
  store i64 %18, ptr %1, align 8
  store i32 1, ptr %3, align 4
  call void @llvm.lifetime.end.p0(i64 8, ptr %4) #10
  br label %19

19:                                               ; preds = %8, %7
  call void @llvm.lifetime.end.p0(i64 16, ptr %2) #10
  %20 = load i64, ptr %1, align 8
  ret i64 %20
}

; Function Attrs: nounwind uwtable
define internal ptr @extraTransferPermuteRecur(ptr noundef %0, ptr noundef %1, ptr noundef %2, ptr noundef %3, ptr noundef %4) #0 {
  %6 = alloca ptr, align 8
  %7 = alloca ptr, align 8
  %8 = alloca ptr, align 8
  %9 = alloca ptr, align 8
  %10 = alloca ptr, align 8
  %11 = alloca ptr, align 8
  %12 = alloca ptr, align 8
  %13 = alloca ptr, align 8
  %14 = alloca ptr, align 8
  %15 = alloca ptr, align 8
  %16 = alloca ptr, align 8
  %17 = alloca ptr, align 8
  %18 = alloca ptr, align 8
  %19 = alloca ptr, align 8
  %20 = alloca i32, align 4
  %21 = alloca i32, align 4
  %22 = alloca i32, align 4
  store ptr %0, ptr %7, align 8, !tbaa !3
  store ptr %1, ptr %8, align 8, !tbaa !3
  store ptr %2, ptr %9, align 8, !tbaa !8
  store ptr %3, ptr %10, align 8, !tbaa !30
  store ptr %4, ptr %11, align 8, !tbaa !10
  call void @llvm.lifetime.start.p0(i64 8, ptr %12) #10
  call void @llvm.lifetime.start.p0(i64 8, ptr %13) #10
  call void @llvm.lifetime.start.p0(i64 8, ptr %14) #10
  call void @llvm.lifetime.start.p0(i64 8, ptr %15) #10
  call void @llvm.lifetime.start.p0(i64 8, ptr %16) #10
  call void @llvm.lifetime.start.p0(i64 8, ptr %17) #10
  call void @llvm.lifetime.start.p0(i64 8, ptr %18) #10
  call void @llvm.lifetime.start.p0(i64 8, ptr %19) #10
  call void @llvm.lifetime.start.p0(i64 4, ptr %20) #10
  call void @llvm.lifetime.start.p0(i64 4, ptr %21) #10
  store i32 0, ptr %21, align 4, !tbaa !37
  %23 = load ptr, ptr %8, align 8, !tbaa !3
  %24 = getelementptr inbounds nuw %struct.DdManager, ptr %23, i32 0, i32 1
  %25 = load ptr, ptr %24, align 8, !tbaa !41
  store ptr %25, ptr %18, align 8, !tbaa !8
  %26 = load ptr, ptr %9, align 8, !tbaa !8
  %27 = ptrtoint ptr %26 to i64
  %28 = and i64 %27, 1
  %29 = trunc i64 %28 to i32
  store i32 %29, ptr %21, align 4, !tbaa !37
  %30 = load ptr, ptr %9, align 8, !tbaa !8
  %31 = ptrtoint ptr %30 to i64
  %32 = and i64 %31, -2
  %33 = inttoptr i64 %32 to ptr
  %34 = getelementptr inbounds nuw %struct.DdNode, ptr %33, i32 0, i32 0
  %35 = load i32, ptr %34, align 8, !tbaa !42
  %36 = icmp eq i32 %35, 2147483647
  br i1 %36, label %37, label %44

37:                                               ; preds = %5
  %38 = load ptr, ptr %18, align 8, !tbaa !8
  %39 = ptrtoint ptr %38 to i64
  %40 = load i32, ptr %21, align 4, !tbaa !37
  %41 = sext i32 %40 to i64
  %42 = xor i64 %39, %41
  %43 = inttoptr i64 %42 to ptr
  store ptr %43, ptr %6, align 8
  store i32 1, ptr %22, align 4
  br label %204

44:                                               ; preds = %5
  %45 = load ptr, ptr %9, align 8, !tbaa !8
  %46 = ptrtoint ptr %45 to i64
  %47 = load i32, ptr %21, align 4, !tbaa !37
  %48 = sext i32 %47 to i64
  %49 = xor i64 %46, %48
  %50 = inttoptr i64 %49 to ptr
  store ptr %50, ptr %9, align 8, !tbaa !8
  %51 = load ptr, ptr %10, align 8, !tbaa !30
  %52 = load ptr, ptr %9, align 8, !tbaa !8
  %53 = call i32 @st__lookup(ptr noundef %51, ptr noundef %52, ptr noundef %17)
  %54 = icmp ne i32 %53, 0
  br i1 %54, label %55, label %62

55:                                               ; preds = %44
  %56 = load ptr, ptr %17, align 8, !tbaa !8
  %57 = ptrtoint ptr %56 to i64
  %58 = load i32, ptr %21, align 4, !tbaa !37
  %59 = sext i32 %58 to i64
  %60 = xor i64 %57, %59
  %61 = inttoptr i64 %60 to ptr
  store ptr %61, ptr %6, align 8
  store i32 1, ptr %22, align 4
  br label %204

62:                                               ; preds = %44
  %63 = load ptr, ptr %7, align 8, !tbaa !3
  %64 = getelementptr inbounds nuw %struct.DdManager, ptr %63, i32 0, i32 102
  %65 = load i64, ptr %64, align 8, !tbaa !87
  %66 = icmp ne i64 %65, 0
  br i1 %66, label %67, label %74

67:                                               ; preds = %62
  %68 = call i64 @Abc_Clock()
  %69 = load ptr, ptr %7, align 8, !tbaa !3
  %70 = getelementptr inbounds nuw %struct.DdManager, ptr %69, i32 0, i32 102
  %71 = load i64, ptr %70, align 8, !tbaa !87
  %72 = icmp sgt i64 %68, %71
  br i1 %72, label %73, label %74

73:                                               ; preds = %67
  store ptr null, ptr %6, align 8
  store i32 1, ptr %22, align 4
  br label %204

74:                                               ; preds = %67, %62
  %75 = load ptr, ptr %8, align 8, !tbaa !3
  %76 = getelementptr inbounds nuw %struct.DdManager, ptr %75, i32 0, i32 102
  %77 = load i64, ptr %76, align 8, !tbaa !87
  %78 = icmp ne i64 %77, 0
  br i1 %78, label %79, label %86

79:                                               ; preds = %74
  %80 = call i64 @Abc_Clock()
  %81 = load ptr, ptr %8, align 8, !tbaa !3
  %82 = getelementptr inbounds nuw %struct.DdManager, ptr %81, i32 0, i32 102
  %83 = load i64, ptr %82, align 8, !tbaa !87
  %84 = icmp sgt i64 %80, %83
  br i1 %84, label %85, label %86

85:                                               ; preds = %79
  store ptr null, ptr %6, align 8
  store i32 1, ptr %22, align 4
  br label %204

86:                                               ; preds = %79, %74
  %87 = load ptr, ptr %11, align 8, !tbaa !10
  %88 = icmp ne ptr %87, null
  br i1 %88, label %89, label %97

89:                                               ; preds = %86
  %90 = load ptr, ptr %11, align 8, !tbaa !10
  %91 = load ptr, ptr %9, align 8, !tbaa !8
  %92 = getelementptr inbounds nuw %struct.DdNode, ptr %91, i32 0, i32 0
  %93 = load i32, ptr %92, align 8, !tbaa !42
  %94 = zext i32 %93 to i64
  %95 = getelementptr inbounds nuw i32, ptr %90, i64 %94
  %96 = load i32, ptr %95, align 4, !tbaa !37
  store i32 %96, ptr %20, align 4, !tbaa !37
  br label %101

97:                                               ; preds = %86
  %98 = load ptr, ptr %9, align 8, !tbaa !8
  %99 = getelementptr inbounds nuw %struct.DdNode, ptr %98, i32 0, i32 0
  %100 = load i32, ptr %99, align 8, !tbaa !42
  store i32 %100, ptr %20, align 4, !tbaa !37
  br label %101

101:                                              ; preds = %97, %89
  %102 = load ptr, ptr %9, align 8, !tbaa !8
  %103 = getelementptr inbounds nuw %struct.DdNode, ptr %102, i32 0, i32 3
  %104 = getelementptr inbounds nuw %struct.DdChildren, ptr %103, i32 0, i32 0
  %105 = load ptr, ptr %104, align 8, !tbaa !43
  store ptr %105, ptr %12, align 8, !tbaa !8
  %106 = load ptr, ptr %9, align 8, !tbaa !8
  %107 = getelementptr inbounds nuw %struct.DdNode, ptr %106, i32 0, i32 3
  %108 = getelementptr inbounds nuw %struct.DdChildren, ptr %107, i32 0, i32 1
  %109 = load ptr, ptr %108, align 8, !tbaa !43
  store ptr %109, ptr %13, align 8, !tbaa !8
  %110 = load ptr, ptr %7, align 8, !tbaa !3
  %111 = load ptr, ptr %8, align 8, !tbaa !3
  %112 = load ptr, ptr %12, align 8, !tbaa !8
  %113 = load ptr, ptr %10, align 8, !tbaa !30
  %114 = load ptr, ptr %11, align 8, !tbaa !10
  %115 = call ptr @extraTransferPermuteRecur(ptr noundef %110, ptr noundef %111, ptr noundef %112, ptr noundef %113, ptr noundef %114)
  store ptr %115, ptr %14, align 8, !tbaa !8
  %116 = load ptr, ptr %14, align 8, !tbaa !8
  %117 = icmp eq ptr %116, null
  br i1 %117, label %118, label %119

118:                                              ; preds = %101
  store ptr null, ptr %6, align 8
  store i32 1, ptr %22, align 4
  br label %204

119:                                              ; preds = %101
  %120 = load ptr, ptr %14, align 8, !tbaa !8
  %121 = ptrtoint ptr %120 to i64
  %122 = and i64 %121, -2
  %123 = inttoptr i64 %122 to ptr
  %124 = getelementptr inbounds nuw %struct.DdNode, ptr %123, i32 0, i32 1
  %125 = load i32, ptr %124, align 4, !tbaa !34
  %126 = add i32 %125, 1
  store i32 %126, ptr %124, align 4, !tbaa !34
  %127 = load ptr, ptr %7, align 8, !tbaa !3
  %128 = load ptr, ptr %8, align 8, !tbaa !3
  %129 = load ptr, ptr %13, align 8, !tbaa !8
  %130 = load ptr, ptr %10, align 8, !tbaa !30
  %131 = load ptr, ptr %11, align 8, !tbaa !10
  %132 = call ptr @extraTransferPermuteRecur(ptr noundef %127, ptr noundef %128, ptr noundef %129, ptr noundef %130, ptr noundef %131)
  store ptr %132, ptr %15, align 8, !tbaa !8
  %133 = load ptr, ptr %15, align 8, !tbaa !8
  %134 = icmp eq ptr %133, null
  br i1 %134, label %135, label %138

135:                                              ; preds = %119
  %136 = load ptr, ptr %8, align 8, !tbaa !3
  %137 = load ptr, ptr %14, align 8, !tbaa !8
  call void @Cudd_RecursiveDeref(ptr noundef %136, ptr noundef %137)
  store ptr null, ptr %6, align 8
  store i32 1, ptr %22, align 4
  br label %204

138:                                              ; preds = %119
  %139 = load ptr, ptr %15, align 8, !tbaa !8
  %140 = ptrtoint ptr %139 to i64
  %141 = and i64 %140, -2
  %142 = inttoptr i64 %141 to ptr
  %143 = getelementptr inbounds nuw %struct.DdNode, ptr %142, i32 0, i32 1
  %144 = load i32, ptr %143, align 4, !tbaa !34
  %145 = add i32 %144, 1
  store i32 %145, ptr %143, align 4, !tbaa !34
  %146 = load ptr, ptr %8, align 8, !tbaa !3
  %147 = getelementptr inbounds nuw %struct.DdManager, ptr %146, i32 0, i32 1
  %148 = load ptr, ptr %147, align 8, !tbaa !41
  %149 = ptrtoint ptr %148 to i64
  %150 = xor i64 %149, 1
  %151 = inttoptr i64 %150 to ptr
  store ptr %151, ptr %19, align 8, !tbaa !8
  %152 = load ptr, ptr %8, align 8, !tbaa !3
  %153 = load i32, ptr %20, align 4, !tbaa !37
  %154 = load ptr, ptr %18, align 8, !tbaa !8
  %155 = load ptr, ptr %19, align 8, !tbaa !8
  %156 = call ptr @cuddUniqueInter(ptr noundef %152, i32 noundef %153, ptr noundef %154, ptr noundef %155)
  store ptr %156, ptr %16, align 8, !tbaa !8
  %157 = load ptr, ptr %16, align 8, !tbaa !8
  %158 = icmp eq ptr %157, null
  br i1 %158, label %159, label %164

159:                                              ; preds = %138
  %160 = load ptr, ptr %8, align 8, !tbaa !3
  %161 = load ptr, ptr %14, align 8, !tbaa !8
  call void @Cudd_RecursiveDeref(ptr noundef %160, ptr noundef %161)
  %162 = load ptr, ptr %8, align 8, !tbaa !3
  %163 = load ptr, ptr %15, align 8, !tbaa !8
  call void @Cudd_RecursiveDeref(ptr noundef %162, ptr noundef %163)
  store ptr null, ptr %6, align 8
  store i32 1, ptr %22, align 4
  br label %204

164:                                              ; preds = %138
  %165 = load ptr, ptr %8, align 8, !tbaa !3
  %166 = load ptr, ptr %16, align 8, !tbaa !8
  %167 = load ptr, ptr %14, align 8, !tbaa !8
  %168 = load ptr, ptr %15, align 8, !tbaa !8
  %169 = call ptr @cuddBddIteRecur(ptr noundef %165, ptr noundef %166, ptr noundef %167, ptr noundef %168)
  store ptr %169, ptr %17, align 8, !tbaa !8
  %170 = load ptr, ptr %17, align 8, !tbaa !8
  %171 = icmp eq ptr %170, null
  br i1 %171, label %172, label %177

172:                                              ; preds = %164
  %173 = load ptr, ptr %8, align 8, !tbaa !3
  %174 = load ptr, ptr %14, align 8, !tbaa !8
  call void @Cudd_RecursiveDeref(ptr noundef %173, ptr noundef %174)
  %175 = load ptr, ptr %8, align 8, !tbaa !3
  %176 = load ptr, ptr %15, align 8, !tbaa !8
  call void @Cudd_RecursiveDeref(ptr noundef %175, ptr noundef %176)
  store ptr null, ptr %6, align 8
  store i32 1, ptr %22, align 4
  br label %204

177:                                              ; preds = %164
  %178 = load ptr, ptr %17, align 8, !tbaa !8
  %179 = ptrtoint ptr %178 to i64
  %180 = and i64 %179, -2
  %181 = inttoptr i64 %180 to ptr
  %182 = getelementptr inbounds nuw %struct.DdNode, ptr %181, i32 0, i32 1
  %183 = load i32, ptr %182, align 4, !tbaa !34
  %184 = add i32 %183, 1
  store i32 %184, ptr %182, align 4, !tbaa !34
  %185 = load ptr, ptr %8, align 8, !tbaa !3
  %186 = load ptr, ptr %14, align 8, !tbaa !8
  call void @Cudd_RecursiveDeref(ptr noundef %185, ptr noundef %186)
  %187 = load ptr, ptr %8, align 8, !tbaa !3
  %188 = load ptr, ptr %15, align 8, !tbaa !8
  call void @Cudd_RecursiveDeref(ptr noundef %187, ptr noundef %188)
  %189 = load ptr, ptr %10, align 8, !tbaa !30
  %190 = load ptr, ptr %9, align 8, !tbaa !8
  %191 = load ptr, ptr %17, align 8, !tbaa !8
  %192 = call i32 @st__add_direct(ptr noundef %189, ptr noundef %190, ptr noundef %191)
  %193 = icmp eq i32 %192, -10000
  br i1 %193, label %194, label %197

194:                                              ; preds = %177
  %195 = load ptr, ptr %8, align 8, !tbaa !3
  %196 = load ptr, ptr %17, align 8, !tbaa !8
  call void @Cudd_RecursiveDeref(ptr noundef %195, ptr noundef %196)
  store ptr null, ptr %6, align 8
  store i32 1, ptr %22, align 4
  br label %204

197:                                              ; preds = %177
  %198 = load ptr, ptr %17, align 8, !tbaa !8
  %199 = ptrtoint ptr %198 to i64
  %200 = load i32, ptr %21, align 4, !tbaa !37
  %201 = sext i32 %200 to i64
  %202 = xor i64 %199, %201
  %203 = inttoptr i64 %202 to ptr
  store ptr %203, ptr %6, align 8
  store i32 1, ptr %22, align 4
  br label %204

204:                                              ; preds = %197, %194, %172, %159, %135, %118, %85, %73, %55, %37
  call void @llvm.lifetime.end.p0(i64 4, ptr %21) #10
  call void @llvm.lifetime.end.p0(i64 4, ptr %20) #10
  call void @llvm.lifetime.end.p0(i64 8, ptr %19) #10
  call void @llvm.lifetime.end.p0(i64 8, ptr %18) #10
  call void @llvm.lifetime.end.p0(i64 8, ptr %17) #10
  call void @llvm.lifetime.end.p0(i64 8, ptr %16) #10
  call void @llvm.lifetime.end.p0(i64 8, ptr %15) #10
  call void @llvm.lifetime.end.p0(i64 8, ptr %14) #10
  call void @llvm.lifetime.end.p0(i64 8, ptr %13) #10
  call void @llvm.lifetime.end.p0(i64 8, ptr %12) #10
  %205 = load ptr, ptr %6, align 8
  ret ptr %205
}