; Function Attrs: nounwind uwtable
define internal fastcc ptr @extraTransferPermuteRecur(ptr noundef %0, ptr noundef %1, ptr noundef %2, ptr noundef nonnull %3, ptr noundef %4) unnamed_addr #0 {
  %6 = alloca %struct.timespec, align 8
  %7 = alloca %struct.timespec, align 8
  %8 = alloca ptr, align 8
  call void @llvm.lifetime.start.p0(i64 8, ptr nonnull %8) #19
  %9 = getelementptr inbounds nuw i8, ptr %1, i64 40
  %10 = load ptr, ptr %9, align 8, !tbaa !34
  %11 = ptrtoint ptr %2 to i64
  %12 = and i64 %11, -2
  %13 = inttoptr i64 %12 to ptr
  %14 = load i32, ptr %13, align 8, !tbaa !35
  %15 = icmp eq i32 %14, 2147483647
  %16 = and i64 %11, 1
  br i1 %15, label %17, label %21

17:                                               ; preds = %5
  %18 = ptrtoint ptr %10 to i64
  %19 = xor i64 %16, %18
  %20 = inttoptr i64 %19 to ptr
  br label %113

21:                                               ; preds = %5
  %22 = call i32 @st__lookup(ptr noundef nonnull %3, ptr noundef nonnull %13, ptr noundef nonnull %8) #19
  %.not = icmp eq i32 %22, 0
  br i1 %.not, label %28, label %23

23:                                               ; preds = %21
  %24 = load ptr, ptr %8, align 8, !tbaa !25
  %25 = ptrtoint ptr %24 to i64
  %26 = xor i64 %16, %25
  %27 = inttoptr i64 %26 to ptr
  br label %113

28:                                               ; preds = %21
  %29 = getelementptr inbounds nuw i8, ptr %0, i64 752
  %30 = load i64, ptr %29, align 8, !tbaa !71
  %.not69 = icmp eq i64 %30, 0
  br i1 %.not69, label %43, label %31

31:                                               ; preds = %28
  call void @llvm.lifetime.start.p0(i64 16, ptr nonnull %7) #19
  %32 = call i32 @clock_gettime(i32 noundef 1, ptr noundef nonnull %7) #19
  %33 = icmp slt i32 %32, 0
  br i1 %33, label %Abc_Clock.exit, label %34

34:                                               ; preds = %31
  %35 = load i64, ptr %7, align 8, !tbaa !72
  %36 = mul nsw i64 %35, 1000000
  %37 = getelementptr inbounds nuw i8, ptr %7, i64 8
  %38 = load i64, ptr %37, align 8, !tbaa !74
  %39 = sdiv i64 %38, 1000
  %40 = add nsw i64 %39, %36
  br label %Abc_Clock.exit

Abc_Clock.exit:                                   ; preds = %31, %34
  %.0.i = phi i64 [ %40, %34 ], [ -1, %31 ]
  call void @llvm.lifetime.end.p0(i64 16, ptr nonnull %7) #19
  %41 = load i64, ptr %29, align 8, !tbaa !71
  %42 = icmp sgt i64 %.0.i, %41
  br i1 %42, label %113, label %43

43:                                               ; preds = %Abc_Clock.exit, %28
  %44 = getelementptr inbounds nuw i8, ptr %1, i64 752
  %45 = load i64, ptr %44, align 8, !tbaa !71
  %.not70 = icmp eq i64 %45, 0
  br i1 %.not70, label %58, label %46

46:                                               ; preds = %43
  call void @llvm.lifetime.start.p0(i64 16, ptr nonnull %6) #19
  %47 = call i32 @clock_gettime(i32 noundef 1, ptr noundef nonnull %6) #19
  %48 = icmp slt i32 %47, 0
  br i1 %48, label %Abc_Clock.exit73, label %49

49:                                               ; preds = %46
  %50 = load i64, ptr %6, align 8, !tbaa !72
  %51 = mul nsw i64 %50, 1000000
  %52 = getelementptr inbounds nuw i8, ptr %6, i64 8
  %53 = load i64, ptr %52, align 8, !tbaa !74
  %54 = sdiv i64 %53, 1000
  %55 = add nsw i64 %54, %51
  br label %Abc_Clock.exit73

Abc_Clock.exit73:                                 ; preds = %46, %49
  %.0.i72 = phi i64 [ %55, %49 ], [ -1, %46 ]
  call void @llvm.lifetime.end.p0(i64 16, ptr nonnull %6) #19
  %56 = load i64, ptr %44, align 8, !tbaa !71
  %57 = icmp sgt i64 %.0.i72, %56
  br i1 %57, label %113, label %58

58:                                               ; preds = %Abc_Clock.exit73, %43
  %.not71 = icmp eq ptr %4, null
  %59 = load i32, ptr %13, align 8, !tbaa !35
  br i1 %.not71, label %.split64, label %.split

.split:                                           ; preds = %58
  %60 = zext i32 %59 to i64
  %61 = getelementptr inbounds nuw i32, ptr %4, i64 %60
  %62 = load i32, ptr %61, align 4, !tbaa !31
  br label %.split64

.split64:                                         ; preds = %58, %.split
  %.sink74 = phi ptr [ %4, %.split ], [ null, %58 ]
  %.0 = phi i32 [ %62, %.split ], [ %59, %58 ]
  %63 = getelementptr inbounds nuw i8, ptr %13, i64 16
  %64 = load ptr, ptr %63, align 8, !tbaa !36
  %65 = getelementptr inbounds nuw i8, ptr %13, i64 24
  %66 = load ptr, ptr %65, align 8, !tbaa !36
  %67 = call fastcc ptr @extraTransferPermuteRecur(ptr noundef nonnull %0, ptr noundef nonnull %1, ptr noundef %64, ptr noundef %3, ptr noundef %.sink74)
  %68 = icmp eq ptr %67, null
  br i1 %68, label %113, label %69

69:                                               ; preds = %.split64
  %70 = ptrtoint ptr %67 to i64
  %71 = and i64 %70, -2
  %72 = inttoptr i64 %71 to ptr
  %73 = getelementptr inbounds nuw i8, ptr %72, i64 4
  %74 = load i32, ptr %73, align 4, !tbaa !24
  %75 = add i32 %74, 1
  store i32 %75, ptr %73, align 4, !tbaa !24
  %76 = call fastcc ptr @extraTransferPermuteRecur(ptr noundef nonnull %0, ptr noundef nonnull %1, ptr noundef %66, ptr noundef %3, ptr noundef %4)
  %77 = icmp eq ptr %76, null
  br i1 %77, label %78, label %79

78:                                               ; preds = %69
  call void @Cudd_RecursiveDeref(ptr noundef nonnull %1, ptr noundef nonnull %67) #19
  br label %113

79:                                               ; preds = %69
  %80 = ptrtoint ptr %76 to i64
  %81 = and i64 %80, -2
  %82 = inttoptr i64 %81 to ptr
  %83 = getelementptr inbounds nuw i8, ptr %82, i64 4
  %84 = load i32, ptr %83, align 4, !tbaa !24
  %85 = add i32 %84, 1
  store i32 %85, ptr %83, align 4, !tbaa !24
  %86 = load ptr, ptr %9, align 8, !tbaa !34
  %87 = ptrtoint ptr %86 to i64
  %88 = xor i64 %87, 1
  %89 = inttoptr i64 %88 to ptr
  %90 = call ptr @cuddUniqueInter(ptr noundef nonnull %1, i32 noundef %.0, ptr noundef %10, ptr noundef %89) #19
  %91 = icmp eq ptr %90, null
  br i1 %91, label %92, label %93

92:                                               ; preds = %79
  call void @Cudd_RecursiveDeref(ptr noundef nonnull %1, ptr noundef nonnull %67) #19
  call void @Cudd_RecursiveDeref(ptr noundef nonnull %1, ptr noundef nonnull %76) #19
  br label %113

93:                                               ; preds = %79
  %94 = call ptr @cuddBddIteRecur(ptr noundef nonnull %1, ptr noundef nonnull %90, ptr noundef nonnull %67, ptr noundef nonnull %76) #19
  store ptr %94, ptr %8, align 8, !tbaa !25
  %95 = icmp eq ptr %94, null
  br i1 %95, label %96, label %97

96:                                               ; preds = %93
  call void @Cudd_RecursiveDeref(ptr noundef nonnull %1, ptr noundef nonnull %67) #19
  call void @Cudd_RecursiveDeref(ptr noundef nonnull %1, ptr noundef nonnull %76) #19
  br label %113

97:                                               ; preds = %93
  %98 = ptrtoint ptr %94 to i64
  %99 = and i64 %98, -2
  %100 = inttoptr i64 %99 to ptr
  %101 = getelementptr inbounds nuw i8, ptr %100, i64 4
  %102 = load i32, ptr %101, align 4, !tbaa !24
  %103 = add i32 %102, 1
  store i32 %103, ptr %101, align 4, !tbaa !24
  call void @Cudd_RecursiveDeref(ptr noundef nonnull %1, ptr noundef nonnull %67) #19
  call void @Cudd_RecursiveDeref(ptr noundef nonnull %1, ptr noundef nonnull %76) #19
  %104 = load ptr, ptr %8, align 8, !tbaa !25
  %105 = call i32 @st__add_direct(ptr noundef nonnull %3, ptr noundef nonnull %13, ptr noundef %104) #19
  %106 = icmp eq i32 %105, -10000
  %107 = load ptr, ptr %8, align 8, !tbaa !25
  br i1 %106, label %108, label %109

108:                                              ; preds = %97
  call void @Cudd_RecursiveDeref(ptr noundef nonnull %1, ptr noundef %107) #19
  br label %113

109:                                              ; preds = %97
  %110 = ptrtoint ptr %107 to i64
  %111 = xor i64 %16, %110
  %112 = inttoptr i64 %111 to ptr
  br label %113

113:                                              ; preds = %.split64, %Abc_Clock.exit73, %Abc_Clock.exit, %109, %108, %96, %92, %78, %23, %17
  %.062 = phi ptr [ %20, %17 ], [ %27, %23 ], [ null, %78 ], [ null, %92 ], [ null, %96 ], [ null, %108 ], [ %112, %109 ], [ null, %Abc_Clock.exit ], [ null, %Abc_Clock.exit73 ], [ null, %.split64 ]
  call void @llvm.lifetime.end.p0(i64 8, ptr nonnull %8) #19
  ret ptr %.062
}